target datalayout = "e-m:e-p270:32:32-p271:32:32-p272:64:64-i64:64-i128:128-f80:128-n8:16:32:64-S128"
target triple = "x86_64-pc-linux-gnu"

%struct.walker = type { ptr, ptr, ptr, ptr, ptr, i32, i32, i32, i32 }

@stderr = external global ptr, align 8
@.str.18 = private unnamed_addr constant [173 x i8] c"Some loose object were found to be corrupt, but they might be just\0Aa false '404 Not Found' error message sent with incorrect HTTP\0Astatus code.  Suggest running 'git fsck'.\0A\00", align 1

; Function Attrs: nounwind uwtable
define internal i32 @fetch_using_walker(ptr noundef %0, i32 noundef %1, i32 noundef %2, i32 noundef %3, ptr noundef %4, ptr noundef %5, i32 noundef %6) #0 {
  %8 = alloca ptr, align 8
  %9 = alloca i32, align 4
  %10 = alloca i32, align 4
  %11 = alloca i32, align 4
  %12 = alloca ptr, align 8
  %13 = alloca ptr, align 8
  %14 = alloca i32, align 4
  %15 = alloca ptr, align 8
  %16 = alloca ptr, align 8
  %17 = alloca i32, align 4
  store ptr %0, ptr %8, align 8, !tbaa !11
  store i32 %1, ptr %9, align 4, !tbaa !4
  store i32 %2, ptr %10, align 4, !tbaa !4
  store i32 %3, ptr %11, align 4, !tbaa !4
  store ptr %4, ptr %12, align 8, !tbaa !8
  store ptr %5, ptr %13, align 8, !tbaa !8
  store i32 %6, ptr %14, align 4, !tbaa !4
  call void @llvm.lifetime.start.p0(i64 8, ptr %15) #8
  store ptr null, ptr %15, align 8, !tbaa !11
  call void @llvm.lifetime.start.p0(i64 8, ptr %16) #8
  call void @llvm.lifetime.start.p0(i64 4, ptr %17) #8
  %18 = load ptr, ptr %8, align 8, !tbaa !11
  call void @str_end_url_with_slash(ptr noundef %18, ptr noundef %15)
  %19 = load ptr, ptr %15, align 8, !tbaa !11
  call void @http_init(ptr noundef null, ptr noundef %19, i32 noundef 0)
  %20 = load ptr, ptr %15, align 8, !tbaa !11
  %21 = call ptr @get_http_walker(ptr noundef %20)
  store ptr %21, ptr %16, align 8, !tbaa !65
  %22 = load i32, ptr %9, align 4, !tbaa !4
  %23 = load ptr, ptr %16, align 8, !tbaa !65
  %24 = getelementptr inbounds nuw %struct.walker, ptr %23, i32 0, i32 5
  store i32 %22, ptr %24, align 8, !tbaa !67
  %25 = load i32, ptr %10, align 4, !tbaa !4
  %26 = load ptr, ptr %16, align 8, !tbaa !65
  %27 = getelementptr inbounds nuw %struct.walker, ptr %26, i32 0, i32 7
  store i32 %25, ptr %27, align 8, !tbaa !69
  %28 = load ptr, ptr %16, align 8, !tbaa !65
  %29 = getelementptr inbounds nuw %struct.walker, ptr %28, i32 0, i32 6
  store i32 0, ptr %29, align 4, !tbaa !70
  %30 = load ptr, ptr %16, align 8, !tbaa !65
  %31 = load i32, ptr %11, align 4, !tbaa !4
  %32 = load ptr, ptr %12, align 8, !tbaa !8
  %33 = load ptr, ptr %13, align 8, !tbaa !8
  %34 = load ptr, ptr %15, align 8, !tbaa !11
  %35 = call i32 @walker_fetch(ptr noundef %30, i32 noundef %31, ptr noundef %32, ptr noundef %33, ptr noundef %34)
  store i32 %35, ptr %17, align 4, !tbaa !4
  %36 = load i32, ptr %14, align 4, !tbaa !4
  %37 = icmp ne i32 %36, 0
  br i1 %37, label %38, label %42

38:                                               ; preds = %7
  %39 = load i32, ptr %11, align 4, !tbaa !4
  %40 = load ptr, ptr %12, align 8, !tbaa !8
  %41 = load ptr, ptr %13, align 8, !tbaa !8
  call void @walker_targets_free(i32 noundef %39, ptr noundef %40, ptr noundef %41)
  br label %42

42:                                               ; preds = %38, %7
  %43 = load ptr, ptr %16, align 8, !tbaa !65
  %44 = getelementptr inbounds nuw %struct.walker, ptr %43, i32 0, i32 8
  %45 = load i32, ptr %44, align 4, !tbaa !71
  %46 = icmp ne i32 %45, 0
  br i1 %46, label %47, label %50

47:                                               ; preds = %42
  %48 = load ptr, ptr @stderr, align 8, !tbaa !72
  %49 = call i32 (ptr, ptr, ...) @fprintf(ptr noundef %48, ptr noundef @.str.18) #8
  br label %50

50:                                               ; preds = %47, %42
  %51 = load ptr, ptr %16, align 8, !tbaa !65
  call void @walker_free(ptr noundef %51)
  call void @http_cleanup()
  %52 = load ptr, ptr %15, align 8, !tbaa !11
  call void @free(ptr noundef %52) #8
  %53 = load i32, ptr %17, align 4, !tbaa !4
  call void @llvm.lifetime.end.p0(i64 4, ptr %17) #8
  call void @llvm.lifetime.end.p0(i64 8, ptr %16) #8
  call void @llvm.lifetime.end.p0(i64 8, ptr %15) #8
  ret i32 %53
}