; Function Attrs: nounwind uwtable
define internal fastcc i32 @fetch_using_walker(ptr noundef %0, i32 noundef range(i32 0, 2) %1, i32 noundef range(i32 0, 2) %2, i32 noundef %3, ptr noundef %4, ptr noundef %5, i32 noundef range(i32 0, 2) %6) unnamed_addr #0 {
  %8 = alloca ptr, align 8
  call void @llvm.lifetime.start.p0(i64 8, ptr nonnull %8) #10
  store ptr null, ptr %8, align 8, !tbaa !9
  call void @str_end_url_with_slash(ptr noundef %0, ptr noundef nonnull %8) #10
  %9 = load ptr, ptr %8, align 8, !tbaa !9
  call void @http_init(ptr noundef null, ptr noundef %9, i32 noundef 0) #10
  %10 = load ptr, ptr %8, align 8, !tbaa !9
  %11 = call ptr @get_http_walker(ptr noundef %10) #10
  %12 = getelementptr inbounds nuw i8, ptr %11, i64 40
  store i32 %1, ptr %12, align 8, !tbaa !60
  %13 = getelementptr inbounds nuw i8, ptr %11, i64 48
  store i32 %2, ptr %13, align 8, !tbaa !62
  %14 = getelementptr inbounds nuw i8, ptr %11, i64 44
  store i32 0, ptr %14, align 4, !tbaa !63
  %15 = load ptr, ptr %8, align 8, !tbaa !9
  %16 = call i32 @walker_fetch(ptr noundef %11, i32 noundef %3, ptr noundef %4, ptr noundef %5, ptr noundef %15) #10
  %.not = icmp eq i32 %6, 0
  br i1 %.not, label %18, label %17

17:                                               ; preds = %7
  call void @walker_targets_free(i32 noundef %3, ptr noundef %4, ptr noundef %5) #10
  br label %18

18:                                               ; preds = %17, %7
  %19 = getelementptr inbounds nuw i8, ptr %11, i64 52
  %20 = load i32, ptr %19, align 4, !tbaa !64
  %.not16 = icmp eq i32 %20, 0
  br i1 %.not16, label %24, label %21

21:                                               ; preds = %18
  %22 = load ptr, ptr @stderr, align 8, !tbaa !65
  %23 = call i64 @fwrite(ptr nonnull @.str.18, i64 172, i64 1, ptr %22) #13
  br label %24

24:                                               ; preds = %21, %18
  call void @walker_free(ptr noundef nonnull %11) #10
  call void @http_cleanup() #10
  %25 = load ptr, ptr %8, align 8, !tbaa !9
  call void @free(ptr noundef %25) #10
  call void @llvm.lifetime.end.p0(i64 8, ptr nonnull %8) #10
  ret i32 %16
}